; Function Attrs: mustprogress nounwind uwtable
define noundef ptr @_ZN4LIEF2PE9to_stringENS0_10CODE_PAGESE(i32 noundef %0) local_unnamed_addr #0 {
  %2 = alloca i32, align 4
  %3 = alloca %"class.frozen::map", align 8
  store i32 %0, ptr %2, align 4, !tbaa !3
  call void @llvm.lifetime.start.p0(i64 2248, ptr nonnull %3) #3
  call void @llvm.memcpy.p0.p0.i64(ptr noundef nonnull align 8 dereferenceable(2248) %3, ptr noundef nonnull align 8 dereferenceable(2248) @__const._ZN4LIEF2PE9to_stringENS0_10CODE_PAGESE.enums2str, i64 2248, i1 false)
  %4 = call noundef ptr @_ZNK6frozen3mapIN4LIEF2PE10CODE_PAGESEPKcLm140ESt4lessIS3_EE4findIS3_EEPKSt4pairIS3_S5_ERKT_(ptr noundef nonnull align 8 dereferenceable(2248) %3, ptr noundef nonnull align 4 dereferenceable(4) %2)
  %5 = getelementptr inbounds nuw i8, ptr %3, i64 2248
  %.not = icmp eq ptr %4, %5
  br i1 %.not, label %9, label %6

6:                                                ; preds = %1
  %7 = getelementptr inbounds nuw i8, ptr %4, i64 8
  %8 = load ptr, ptr %7, align 8, !tbaa !7
  br label %9

9:                                                ; preds = %1, %6
  %spec.select = phi ptr [ %8, %6 ], [ @.str.140, %1 ]
  call void @llvm.lifetime.end.p0(i64 2248, ptr nonnull %3) #3
  ret ptr %spec.select
}